target datalayout = "e-m:e-p270:32:32-p271:32:32-p272:64:64-i64:64-i128:128-f80:128-n8:16:32:64-S128"
target triple = "x86_64-pc-linux-gnu"

@_ZN19Abstract_VM_Version9_featuresE = external global i64, align 8

; Function Attrs: mustprogress nounwind uwtable
define linkonce_odr hidden noundef zeroext i1 @_ZN10VM_Version13supports_evexEv() #1 comdat align 2 {
  %1 = load i64, ptr @_ZN19Abstract_VM_Version9_featuresE, align 8
  %2 = and i64 %1, 134217728
  %3 = icmp ne i64 %2, 0
  ret i1 %3
}

; Function Attrs: mustprogress nounwind uwtable
define hidden noundef zeroext i1 @_ZN9Assembler26query_compressed_disp_byteEibiiii(i32 noundef %0, i1 noundef zeroext %1, i32 noundef %2, i32 noundef %3, i32 noundef %4, i32 noundef %5) #1 align 2 {
  %7 = alloca i1, align 1
  %8 = alloca i32, align 4
  %9 = alloca i8, align 1
  %10 = alloca i32, align 4
  %11 = alloca i32, align 4
  %12 = alloca i32, align 4
  %13 = alloca i32, align 4
  %14 = alloca i32, align 4
  %15 = alloca i32, align 4
  %16 = alloca i32, align 4
  store i32 %0, ptr %8, align 4
  %17 = zext i1 %1 to i8
  store i8 %17, ptr %9, align 1
  store i32 %2, ptr %10, align 4
  store i32 %3, ptr %11, align 4
  store i32 %4, ptr %12, align 4
  store i32 %5, ptr %13, align 4
  store i32 0, ptr %14, align 4
  %18 = call noundef zeroext i1 @_ZN10VM_Version13supports_evexEv()
  br i1 %18, label %19, label %100

19:                                               ; preds = %6
  %20 = load i8, ptr %9, align 1
  %21 = trunc i8 %20 to i1
  br i1 %21, label %22, label %100

22:                                               ; preds = %19
  %23 = load i32, ptr %11, align 4
  switch i32 %23, label %63 [
    i32 0, label %24
    i32 4, label %39
    i32 6, label %44
    i32 7, label %45
    i32 11, label %52
    i32 13, label %52
    i32 15, label %52
    i32 17, label %56
    i32 18, label %57
    i32 19, label %58
    i32 20, label %59
    i32 21, label %60
    i32 22, label %61
    i32 23, label %62
  ]

24:                                               ; preds = %22
  %25 = load i32, ptr %13, align 4
  %26 = and i32 %25, 128
  %27 = icmp eq i32 %26, 128
  br i1 %27, label %28, label %33

28:                                               ; preds = %24
  %29 = load i32, ptr %13, align 4
  %30 = and i32 %29, 16
  %31 = icmp eq i32 %30, 16
  %32 = select i1 %31, i32 3, i32 2
  store i32 %32, ptr %14, align 4
  br label %38

33:                                               ; preds = %24
  %34 = load i32, ptr %13, align 4
  %35 = and i32 %34, 16
  %36 = icmp eq i32 %35, 16
  %37 = select i1 %36, i32 1, i32 0
  store i32 %37, ptr %14, align 4
  br label %38

38:                                               ; preds = %33, %28
  br label %64

39:                                               ; preds = %22
  %40 = load i32, ptr %13, align 4
  %41 = and i32 %40, 16
  %42 = icmp eq i32 %41, 16
  %43 = select i1 %42, i32 1, i32 0
  store i32 %43, ptr %14, align 4
  br label %64

44:                                               ; preds = %22
  br label %64

45:                                               ; preds = %22
  %46 = load i32, ptr %12, align 4
  switch i32 %46, label %51 [
    i32 0, label %47
    i32 1, label %48
    i32 2, label %49
    i32 3, label %50
  ]

47:                                               ; preds = %45
  br label %51

48:                                               ; preds = %45
  store i32 1, ptr %14, align 4
  br label %51

49:                                               ; preds = %45
  store i32 2, ptr %14, align 4
  br label %51

50:                                               ; preds = %45
  store i32 3, ptr %14, align 4
  br label %51

51:                                               ; preds = %50, %49, %48, %47, %45
  br label %64

52:                                               ; preds = %22, %22, %22
  %53 = load i32, ptr %12, align 4
  %54 = icmp eq i32 %53, 3
  %55 = select i1 %54, i32 1, i32 0
  store i32 %55, ptr %14, align 4
  br label %64

56:                                               ; preds = %22
  br label %64

57:                                               ; preds = %22
  br label %64

58:                                               ; preds = %22
  br label %64

59:                                               ; preds = %22
  br label %64

60:                                               ; preds = %22
  br label %64

61:                                               ; preds = %22
  br label %64

62:                                               ; preds = %22
  br label %64

63:                                               ; preds = %22
  br label %64

64:                                               ; preds = %63, %62, %61, %60, %59, %58, %57, %56, %52, %51, %44, %39, %38
  %65 = load i32, ptr %10, align 4
  %66 = icmp sge i32 %65, 0
  br i1 %66, label %67, label %99

67:                                               ; preds = %64
  %68 = load i32, ptr %10, align 4
  %69 = icmp sle i32 %68, 2
  br i1 %69, label %70, label %99

70:                                               ; preds = %67
  %71 = load i32, ptr %11, align 4
  %72 = load i32, ptr %14, align 4
  %73 = add nsw i32 %71, %72
  %74 = sext i32 %73 to i64
  %75 = getelementptr inbounds [25 x [3 x i8]], ptr @_ZL11tuple_table, i64 0, i64 %74
  %76 = load i32, ptr %10, align 4
  %77 = sext i32 %76 to i64
  %78 = getelementptr inbounds [3 x i8], ptr %75, i64 0, i64 %77
  %79 = load i8, ptr %78, align 1
  %80 = zext i8 %79 to i32
  store i32 %80, ptr %15, align 4
  %81 = load i32, ptr %8, align 4
  %82 = load i32, ptr %15, align 4
  %83 = srem i32 %81, %82
  %84 = icmp eq i32 %83, 0
  br i1 %84, label %85, label %97

85:                                               ; preds = %70
  %86 = load i32, ptr %8, align 4
  %87 = load i32, ptr %15, align 4
  %88 = sdiv i32 %86, %87
  store i32 %88, ptr %16, align 4
  %89 = load i32, ptr %16, align 4
  %90 = icmp sle i32 -128, %89
  br i1 %90, label %91, label %96

91:                                               ; preds = %85
  %92 = load i32, ptr %16, align 4
  %93 = icmp slt i32 %92, 128
  br i1 %93, label %94, label %96

94:                                               ; preds = %91
  %95 = load i32, ptr %16, align 4
  store i32 %95, ptr %8, align 4
  br label %96

96:                                               ; preds = %94, %91, %85
  br label %98

97:                                               ; preds = %70
  store i1 false, ptr %7, align 1
  br label %108

98:                                               ; preds = %96
  br label %99

99:                                               ; preds = %98, %67, %64
  br label %100

100:                                              ; preds = %99, %19, %6
  %101 = load i32, ptr %8, align 4
  %102 = icmp sle i32 -128, %101
  br i1 %102, label %103, label %106

103:                                              ; preds = %100
  %104 = load i32, ptr %8, align 4
  %105 = icmp slt i32 %104, 128
  br label %106

106:                                              ; preds = %103, %100
  %107 = phi i1 [ false, %100 ], [ %105, %103 ]
  store i1 %107, ptr %7, align 1
  br label %108

108:                                              ; preds = %106, %97
  %109 = load i1, ptr %7, align 1
  ret i1 %109
}