; Function Attrs: mustprogress nofree norecurse nosync nounwind willreturn memory(read, argmem: none, inaccessiblemem: none) uwtable
define hidden noundef zeroext i1 @_ZN9Assembler26query_compressed_disp_byteEibiiii(i32 noundef %0, i1 noundef zeroext %1, i32 noundef %2, i32 noundef %3, i32 noundef %4, i32 noundef %5) local_unnamed_addr #9 align 2 {
  %7 = load i64, ptr @_ZN19Abstract_VM_Version9_featuresE, align 8
  %8 = and i64 %7, 134217728
  %.not34 = icmp ne i64 %8, 0
  %brmerge.not = and i1 %.not34, %1
  br i1 %brmerge.not, label %9, label %36

9:                                                ; preds = %6
  switch i32 %3, label %switch.lookup [
    i32 0, label %10
    i32 4, label %17
    i32 15, label %21
    i32 7, label %19
    i32 11, label %21
    i32 13, label %21
  ]

10:                                               ; preds = %9
  %11 = and i32 %5, 128
  %.not = icmp eq i32 %11, 0
  br i1 %.not, label %15, label %12

12:                                               ; preds = %10
  %13 = and i32 %5, 16
  %.not31 = icmp eq i32 %13, 0
  %14 = select i1 %.not31, i32 2, i32 3
  br label %switch.lookup

15:                                               ; preds = %10
  %16 = lshr i32 %5, 4
  %.lobit30 = and i32 %16, 1
  br label %switch.lookup

17:                                               ; preds = %9
  %18 = lshr i32 %5, 4
  %.lobit = and i32 %18, 1
  br label %switch.lookup

19:                                               ; preds = %9
  %switch.tableidx = add i32 %4, -1
  %20 = icmp ult i32 %switch.tableidx, 3
  %spec.select35 = select i1 %20, i32 %4, i32 0
  br label %switch.lookup

21:                                               ; preds = %9, %9, %9
  %22 = icmp eq i32 %4, 3
  %23 = zext i1 %22 to i32
  br label %switch.lookup

switch.lookup:                                    ; preds = %19, %9, %12, %15, %21, %17
  %.026 = phi i32 [ 0, %9 ], [ %23, %21 ], [ %.lobit, %17 ], [ %14, %12 ], [ %.lobit30, %15 ], [ %spec.select35, %19 ]
  %or.cond = icmp ult i32 %2, 3
  br i1 %or.cond, label %24, label %36

24:                                               ; preds = %switch.lookup
  %25 = add nsw i32 %.026, %3
  %26 = sext i32 %25 to i64
  %27 = zext nneg i32 %2 to i64
  %28 = getelementptr inbounds [25 x [3 x i8]], ptr @_ZL11tuple_table, i64 0, i64 %26, i64 %27
  %29 = load i8, ptr %28, align 1
  %30 = zext i8 %29 to i32
  %31 = srem i32 %0, %30
  %32 = sdiv i32 %0, %30
  %33 = icmp eq i32 %31, 0
  br i1 %33, label %34, label %39

34:                                               ; preds = %24
  %35 = add i32 %32, 128
  %or.cond3 = icmp ult i32 %35, 256
  %spec.select = select i1 %or.cond3, i32 %32, i32 %0
  br label %36

36:                                               ; preds = %34, %6, %switch.lookup
  %.025 = phi i32 [ %0, %switch.lookup ], [ %0, %6 ], [ %spec.select, %34 ]
  %37 = add i32 %.025, 128
  %38 = icmp ult i32 %37, 256
  br label %39

39:                                               ; preds = %24, %36
  %.0 = phi i1 [ %38, %36 ], [ false, %24 ]
  ret i1 %.0
}